; Function Attrs: nounwind uwtable
define i64 @H5FD_get_driver_id_by_name(ptr noundef %0, i1 noundef zeroext %1) local_unnamed_addr #0 {
  %3 = alloca %struct.H5FD_get_driver_ud_t, align 8
  call void @llvm.lifetime.start.p0(i64 24, ptr nonnull %3) #12
  %4 = load i8, ptr @H5FD_init_g, align 1, !tbaa !3, !range !7, !noundef !8
  %5 = trunc nuw i8 %4 to i1
  %6 = load i8, ptr @H5_libterm_g, align 1, !range !7
  %7 = trunc nuw i8 %6 to i1
  %8 = select i1 %5, i1 true, i1 %7
  br i1 %8, label %16, label %9, !prof !9

9:                                                ; preds = %2
  store i8 1, ptr @H5FD_init_g, align 1, !tbaa !3
  %10 = tail call i32 @H5FD__init_package() #12
  %11 = icmp slt i32 %10, 0
  br i1 %11, label %12, label %._crit_edge

._crit_edge:                                      ; preds = %9
  %.pre = load i8, ptr @H5FD_init_g, align 1, !tbaa !3, !range !7
  %.pre7 = load i8, ptr @H5_libterm_g, align 1, !range !7
  %.pre8 = trunc nuw i8 %.pre to i1
  %.pre9 = trunc nuw i8 %.pre7 to i1
  br label %16

12:                                               ; preds = %9
  store i8 0, ptr @H5FD_init_g, align 1, !tbaa !3
  %13 = load i64, ptr @H5E_FUNC_g, align 8, !tbaa !10
  %14 = load i64, ptr @H5E_CANTINIT_g, align 8, !tbaa !10
  %15 = tail call i32 (ptr, ptr, i32, i64, i64, ptr, ...) @H5E_printf_stack(ptr noundef nonnull @.str, ptr noundef nonnull @__func__.H5FD_get_driver_id_by_name, i32 noundef 3370, i64 noundef %13, i64 noundef %14, ptr noundef nonnull @.str.6) #12
  br label %37

16:                                               ; preds = %._crit_edge, %2
  %.pre-phi10 = phi i1 [ %.pre9, %._crit_edge ], [ %7, %2 ]
  %.pre-phi = phi i1 [ %.pre8, %._crit_edge ], [ %5, %2 ]
  %17 = xor i1 %.pre-phi10, true
  %18 = select i1 %.pre-phi, i1 true, i1 %17
  br i1 %18, label %19, label %37, !prof !9

19:                                               ; preds = %16
  store i32 0, ptr %3, align 8, !tbaa !90
  %20 = getelementptr inbounds nuw i8, ptr %3, i64 8
  store ptr %0, ptr %20, align 8, !tbaa !77
  %21 = getelementptr inbounds nuw i8, ptr %3, i64 16
  store i64 -1, ptr %21, align 8, !tbaa !93
  %22 = call i32 @H5I_iterate(i32 noundef 8, ptr noundef nonnull @H5FD__get_driver_cb, ptr noundef nonnull %3, i1 noundef zeroext false) #12
  %23 = icmp slt i32 %22, 0
  br i1 %23, label %24, label %28

24:                                               ; preds = %19
  %25 = load i64, ptr @H5E_VFL_g, align 8, !tbaa !10
  %26 = load i64, ptr @H5E_BADITER_g, align 8, !tbaa !10
  %27 = call i32 (ptr, ptr, i32, i64, i64, ptr, ...) @H5E_printf_stack(ptr noundef nonnull @.str, ptr noundef nonnull @__func__.H5FD_get_driver_id_by_name, i32 noundef 3379, i64 noundef %25, i64 noundef %26, ptr noundef nonnull @.str.44) #12
  br label %37

28:                                               ; preds = %19
  %29 = load i64, ptr %21, align 8, !tbaa !93
  %.not = icmp eq i64 %29, -1
  br i1 %.not, label %37, label %30

30:                                               ; preds = %28
  %31 = call i32 @H5I_inc_ref(i64 noundef %29, i1 noundef zeroext %1) #12
  %32 = icmp slt i32 %31, 0
  br i1 %32, label %33, label %37

33:                                               ; preds = %30
  %34 = load i64, ptr @H5E_VFL_g, align 8, !tbaa !10
  %35 = load i64, ptr @H5E_CANTINC_g, align 8, !tbaa !10
  %36 = call i32 (ptr, ptr, i32, i64, i64, ptr, ...) @H5E_printf_stack(ptr noundef nonnull @.str, ptr noundef nonnull @__func__.H5FD_get_driver_id_by_name, i32 noundef 3385, i64 noundef %34, i64 noundef %35, ptr noundef nonnull @.str.45) #12
  br label %37

37:                                               ; preds = %12, %24, %33, %30, %28, %16
  %.0 = phi i64 [ -1, %12 ], [ -1, %24 ], [ -1, %33 ], [ %29, %30 ], [ -1, %28 ], [ -1, %16 ]
  call void @llvm.lifetime.end.p0(i64 24, ptr nonnull %3) #12
  ret i64 %.0
}